target datalayout = "e-m:e-p270:32:32-p271:32:32-p272:64:64-i64:64-i128:128-f80:128-n8:16:32:64-S128"
target triple = "x86_64-pc-linux-gnu"

%struct.Nwk_Man_t_ = type { ptr, ptr, ptr, ptr, ptr, [5 x i32], i32, ptr, ptr, ptr, ptr, ptr, i32, i32, i32, i32, i32 }
%struct.Nwk_Obj_t_ = type { ptr, ptr, ptr, %union.anon, i32, i32, i32, i32, float, float, float, i32, i32, i32, ptr }
%union.anon = type { ptr }
%struct.Vec_Ptr_t_ = type { i32, i32, ptr }

; Function Attrs: inlinehint nounwind uwtable
define internal void @Vec_PtrGrow(ptr noundef %0, i32 noundef %1) #2 {
  %3 = alloca ptr, align 8
  %4 = alloca i32, align 4
  store ptr %0, ptr %3, align 8, !tbaa !29
  store i32 %1, ptr %4, align 4, !tbaa !8
  %5 = load ptr, ptr %3, align 8, !tbaa !29
  %6 = getelementptr inbounds nuw %struct.Vec_Ptr_t_, ptr %5, i32 0, i32 0
  %7 = load i32, ptr %6, align 8, !tbaa !77
  %8 = load i32, ptr %4, align 4, !tbaa !8
  %9 = icmp sge i32 %7, %8
  br i1 %9, label %10, label %11

10:                                               ; preds = %2
  br label %36

11:                                               ; preds = %2
  %12 = load ptr, ptr %3, align 8, !tbaa !29
  %13 = getelementptr inbounds nuw %struct.Vec_Ptr_t_, ptr %12, i32 0, i32 2
  %14 = load ptr, ptr %13, align 8, !tbaa !32
  %15 = icmp ne ptr %14, null
  br i1 %15, label %16, label %24

16:                                               ; preds = %11
  %17 = load ptr, ptr %3, align 8, !tbaa !29
  %18 = getelementptr inbounds nuw %struct.Vec_Ptr_t_, ptr %17, i32 0, i32 2
  %19 = load ptr, ptr %18, align 8, !tbaa !32
  %20 = load i32, ptr %4, align 4, !tbaa !8
  %21 = sext i32 %20 to i64
  %22 = mul i64 8, %21
  %23 = call ptr @realloc(ptr noundef %19, i64 noundef %22) #10
  br label %29

24:                                               ; preds = %11
  %25 = load i32, ptr %4, align 4, !tbaa !8
  %26 = sext i32 %25 to i64
  %27 = mul i64 8, %26
  %28 = call noalias ptr @malloc(i64 noundef %27) #9
  br label %29

29:                                               ; preds = %24, %16
  %30 = phi ptr [ %23, %16 ], [ %28, %24 ]
  %31 = load ptr, ptr %3, align 8, !tbaa !29
  %32 = getelementptr inbounds nuw %struct.Vec_Ptr_t_, ptr %31, i32 0, i32 2
  store ptr %30, ptr %32, align 8, !tbaa !32
  %33 = load i32, ptr %4, align 4, !tbaa !8
  %34 = load ptr, ptr %3, align 8, !tbaa !29
  %35 = getelementptr inbounds nuw %struct.Vec_Ptr_t_, ptr %34, i32 0, i32 0
  store i32 %33, ptr %35, align 8, !tbaa !77
  br label %36

36:                                               ; preds = %29, %10
  ret void
}

; Function Attrs: inlinehint nounwind uwtable
define internal ptr @Nwk_ManCi(ptr noundef %0, i32 noundef %1) #2 {
  %3 = alloca ptr, align 8
  %4 = alloca i32, align 4
  store ptr %0, ptr %3, align 8, !tbaa !3
  store i32 %1, ptr %4, align 4, !tbaa !8
  %5 = load ptr, ptr %3, align 8, !tbaa !3
  %6 = getelementptr inbounds nuw %struct.Nwk_Man_t_, ptr %5, i32 0, i32 2
  %7 = load ptr, ptr %6, align 8, !tbaa !84
  %8 = load i32, ptr %4, align 4, !tbaa !8
  %9 = call ptr @Vec_PtrEntry(ptr noundef %7, i32 noundef %8)
  ret ptr %9
}

; Function Attrs: inlinehint nounwind uwtable
define internal i32 @Nwk_ObjIsCo(ptr noundef %0) #2 {
  %2 = alloca ptr, align 8
  store ptr %0, ptr %2, align 8, !tbaa !18
  %3 = load ptr, ptr %2, align 8, !tbaa !18
  %4 = getelementptr inbounds nuw %struct.Nwk_Obj_t_, ptr %3, i32 0, i32 4
  %5 = load i32, ptr %4, align 8
  %6 = and i32 %5, 7
  %7 = icmp eq i32 %6, 2
  %8 = zext i1 %7 to i32
  ret i32 %8
}

; Function Attrs: inlinehint nounwind uwtable
define internal void @Nwk_ObjSetLevel(ptr noundef %0, i32 noundef %1) #2 {
  %3 = alloca ptr, align 8
  %4 = alloca i32, align 4
  store ptr %0, ptr %3, align 8, !tbaa !18
  store i32 %1, ptr %4, align 4, !tbaa !8
  %5 = load i32, ptr %4, align 4, !tbaa !8
  %6 = load ptr, ptr %3, align 8, !tbaa !18
  %7 = getelementptr inbounds nuw %struct.Nwk_Obj_t_, ptr %6, i32 0, i32 7
  store i32 %5, ptr %7, align 4, !tbaa !78
  ret void
}

; Function Attrs: inlinehint nounwind uwtable
define internal i32 @Nwk_ObjLevel(ptr noundef %0) #2 {
  %2 = alloca ptr, align 8
  store ptr %0, ptr %2, align 8, !tbaa !18
  %3 = load ptr, ptr %2, align 8, !tbaa !18
  %4 = getelementptr inbounds nuw %struct.Nwk_Obj_t_, ptr %3, i32 0, i32 7
  %5 = load i32, ptr %4, align 4, !tbaa !78
  ret i32 %5
}

; Function Attrs: inlinehint nounwind uwtable
define internal ptr @Vec_PtrEntry(ptr noundef %0, i32 noundef %1) #2 {
  %3 = alloca ptr, align 8
  %4 = alloca i32, align 4
  store ptr %0, ptr %3, align 8, !tbaa !29
  store i32 %1, ptr %4, align 4, !tbaa !8
  %5 = load ptr, ptr %3, align 8, !tbaa !29
  %6 = getelementptr inbounds nuw %struct.Vec_Ptr_t_, ptr %5, i32 0, i32 2
  %7 = load ptr, ptr %6, align 8, !tbaa !32
  %8 = load i32, ptr %4, align 4, !tbaa !8
  %9 = sext i32 %8 to i64
  %10 = getelementptr inbounds ptr, ptr %7, i64 %9
  %11 = load ptr, ptr %10, align 8, !tbaa !33
  ret ptr %11
}

; Function Attrs: inlinehint nounwind uwtable
define internal i32 @Vec_PtrSize(ptr noundef %0) #2 {
  %2 = alloca ptr, align 8
  store ptr %0, ptr %2, align 8, !tbaa !29
  %3 = load ptr, ptr %2, align 8, !tbaa !29
  %4 = getelementptr inbounds nuw %struct.Vec_Ptr_t_, ptr %3, i32 0, i32 1
  %5 = load i32, ptr %4, align 4, !tbaa !30
  ret i32 %5
}

; Function Attrs: inlinehint nounwind uwtable
define internal void @Vec_PtrPush(ptr noundef %0, ptr noundef %1) #2 {
  %3 = alloca ptr, align 8
  %4 = alloca ptr, align 8
  store ptr %0, ptr %3, align 8, !tbaa !29
  store ptr %1, ptr %4, align 8, !tbaa !33
  %5 = load ptr, ptr %3, align 8, !tbaa !29
  %6 = getelementptr inbounds nuw %struct.Vec_Ptr_t_, ptr %5, i32 0, i32 1
  %7 = load i32, ptr %6, align 4, !tbaa !30
  %8 = load ptr, ptr %3, align 8, !tbaa !29
  %9 = getelementptr inbounds nuw %struct.Vec_Ptr_t_, ptr %8, i32 0, i32 0
  %10 = load i32, ptr %9, align 8, !tbaa !77
  %11 = icmp eq i32 %7, %10
  br i1 %11, label %12, label %26

12:                                               ; preds = %2
  %13 = load ptr, ptr %3, align 8, !tbaa !29
  %14 = getelementptr inbounds nuw %struct.Vec_Ptr_t_, ptr %13, i32 0, i32 0
  %15 = load i32, ptr %14, align 8, !tbaa !77
  %16 = icmp slt i32 %15, 16
  br i1 %16, label %17, label %19

17:                                               ; preds = %12
  %18 = load ptr, ptr %3, align 8, !tbaa !29
  call void @Vec_PtrGrow(ptr noundef %18, i32 noundef 16)
  br label %25

19:                                               ; preds = %12
  %20 = load ptr, ptr %3, align 8, !tbaa !29
  %21 = load ptr, ptr %3, align 8, !tbaa !29
  %22 = getelementptr inbounds nuw %struct.Vec_Ptr_t_, ptr %21, i32 0, i32 0
  %23 = load i32, ptr %22, align 8, !tbaa !77
  %24 = mul nsw i32 2, %23
  call void @Vec_PtrGrow(ptr noundef %20, i32 noundef %24)
  br label %25

25:                                               ; preds = %19, %17
  br label %26

26:                                               ; preds = %25, %2
  %27 = load ptr, ptr %4, align 8, !tbaa !33
  %28 = load ptr, ptr %3, align 8, !tbaa !29
  %29 = getelementptr inbounds nuw %struct.Vec_Ptr_t_, ptr %28, i32 0, i32 2
  %30 = load ptr, ptr %29, align 8, !tbaa !32
  %31 = load ptr, ptr %3, align 8, !tbaa !29
  %32 = getelementptr inbounds nuw %struct.Vec_Ptr_t_, ptr %31, i32 0, i32 1
  %33 = load i32, ptr %32, align 4, !tbaa !30
  %34 = add nsw i32 %33, 1
  store i32 %34, ptr %32, align 4, !tbaa !30
  %35 = sext i32 %33 to i64
  %36 = getelementptr inbounds ptr, ptr %30, i64 %35
  store ptr %27, ptr %36, align 8, !tbaa !33
  ret void
}

; Function Attrs: inlinehint nounwind uwtable
define internal void @Vec_PtrClear(ptr noundef %0) #2 {
  %2 = alloca ptr, align 8
  store ptr %0, ptr %2, align 8, !tbaa !29
  %3 = load ptr, ptr %2, align 8, !tbaa !29
  %4 = getelementptr inbounds nuw %struct.Vec_Ptr_t_, ptr %3, i32 0, i32 1
  store i32 0, ptr %4, align 4, !tbaa !30
  ret void
}

; Function Attrs: nounwind uwtable
define void @Nwk_ManUpdateLevel(ptr noundef %0) #0 {
  %2 = alloca ptr, align 8
  %3 = alloca ptr, align 8
  %4 = alloca ptr, align 8
  %5 = alloca ptr, align 8
  %6 = alloca ptr, align 8
  %7 = alloca i32, align 4
  %8 = alloca i32, align 4
  %9 = alloca i32, align 4
  %10 = alloca i32, align 4
  %11 = alloca i32, align 4
  %12 = alloca i32, align 4
  store ptr %0, ptr %2, align 8, !tbaa !18
  call void @llvm.lifetime.start.p0(i64 8, ptr %3) #8
  %13 = load ptr, ptr %2, align 8, !tbaa !18
  %14 = getelementptr inbounds nuw %struct.Nwk_Obj_t_, ptr %13, i32 0, i32 0
  %15 = load ptr, ptr %14, align 8, !tbaa !46
  %16 = getelementptr inbounds nuw %struct.Nwk_Man_t_, ptr %15, i32 0, i32 8
  %17 = load ptr, ptr %16, align 8, !tbaa !65
  store ptr %17, ptr %3, align 8, !tbaa !79
  call void @llvm.lifetime.start.p0(i64 8, ptr %4) #8
  %18 = load ptr, ptr %2, align 8, !tbaa !18
  %19 = getelementptr inbounds nuw %struct.Nwk_Obj_t_, ptr %18, i32 0, i32 0
  %20 = load ptr, ptr %19, align 8, !tbaa !46
  %21 = getelementptr inbounds nuw %struct.Nwk_Man_t_, ptr %20, i32 0, i32 11
  %22 = load ptr, ptr %21, align 8, !tbaa !80
  store ptr %22, ptr %4, align 8, !tbaa !29
  call void @llvm.lifetime.start.p0(i64 8, ptr %5) #8
  call void @llvm.lifetime.start.p0(i64 8, ptr %6) #8
  store ptr null, ptr %6, align 8, !tbaa !18
  call void @llvm.lifetime.start.p0(i64 4, ptr %7) #8
  call void @llvm.lifetime.start.p0(i64 4, ptr %8) #8
  call void @llvm.lifetime.start.p0(i64 4, ptr %9) #8
  call void @llvm.lifetime.start.p0(i64 4, ptr %10) #8
  call void @llvm.lifetime.start.p0(i64 4, ptr %11) #8
  call void @llvm.lifetime.start.p0(i64 4, ptr %12) #8
  %23 = load ptr, ptr %4, align 8, !tbaa !29
  call void @Vec_PtrClear(ptr noundef %23)
  %24 = load ptr, ptr %4, align 8, !tbaa !29
  %25 = load ptr, ptr %2, align 8, !tbaa !18
  call void @Vec_PtrPush(ptr noundef %24, ptr noundef %25)
  %26 = load ptr, ptr %2, align 8, !tbaa !18
  %27 = getelementptr inbounds nuw %struct.Nwk_Obj_t_, ptr %26, i32 0, i32 4
  %28 = load i32, ptr %27, align 8
  %29 = and i32 %28, -17
  %30 = or i32 %29, 16
  store i32 %30, ptr %27, align 8
  store i32 0, ptr %8, align 4, !tbaa !8
  br label %31

31:                                               ; preds = %160, %1
  %32 = load i32, ptr %8, align 4, !tbaa !8
  %33 = load ptr, ptr %4, align 8, !tbaa !29
  %34 = call i32 @Vec_PtrSize(ptr noundef %33)
  %35 = icmp slt i32 %32, %34
  br i1 %35, label %36, label %40

36:                                               ; preds = %31
  %37 = load ptr, ptr %4, align 8, !tbaa !29
  %38 = load i32, ptr %8, align 4, !tbaa !8
  %39 = call ptr @Vec_PtrEntry(ptr noundef %37, i32 noundef %38)
  store ptr %39, ptr %5, align 8, !tbaa !18
  br label %40

40:                                               ; preds = %36, %31
  %41 = phi i1 [ false, %31 ], [ true, %36 ]
  br i1 %41, label %42, label %163

42:                                               ; preds = %40
  %43 = load ptr, ptr %5, align 8, !tbaa !18
  %44 = getelementptr inbounds nuw %struct.Nwk_Obj_t_, ptr %43, i32 0, i32 4
  %45 = load i32, ptr %44, align 8
  %46 = and i32 %45, -17
  %47 = or i32 %46, 0
  store i32 %47, ptr %44, align 8
  %48 = load ptr, ptr %5, align 8, !tbaa !18
  %49 = call i32 @Nwk_ObjLevelNew(ptr noundef %48)
  store i32 %49, ptr %7, align 4, !tbaa !8
  %50 = load i32, ptr %7, align 4, !tbaa !8
  %51 = load ptr, ptr %5, align 8, !tbaa !18
  %52 = call i32 @Nwk_ObjLevel(ptr noundef %51)
  %53 = icmp eq i32 %50, %52
  br i1 %53, label %54, label %55

54:                                               ; preds = %42
  br label %160

55:                                               ; preds = %42
  %56 = load ptr, ptr %5, align 8, !tbaa !18
  %57 = load i32, ptr %7, align 4, !tbaa !8
  call void @Nwk_ObjSetLevel(ptr noundef %56, i32 noundef %57)
  %58 = load ptr, ptr %5, align 8, !tbaa !18
  %59 = call i32 @Nwk_ObjIsCo(ptr noundef %58)
  %60 = icmp ne i32 %59, 0
  br i1 %60, label %61, label %116

61:                                               ; preds = %55
  %62 = load ptr, ptr %3, align 8, !tbaa !79
  %63 = icmp ne ptr %62, null
  br i1 %63, label %64, label %115

64:                                               ; preds = %61
  %65 = load ptr, ptr %3, align 8, !tbaa !79
  %66 = load ptr, ptr %5, align 8, !tbaa !18
  %67 = getelementptr inbounds nuw %struct.Nwk_Obj_t_, ptr %66, i32 0, i32 4
  %68 = load i32, ptr %67, align 8
  %69 = lshr i32 %68, 7
  %70 = call i32 @Tim_ManBoxForCo(ptr noundef %65, i32 noundef %69)
  store i32 %70, ptr %10, align 4, !tbaa !8
  %71 = load i32, ptr %10, align 4, !tbaa !8
  %72 = icmp sge i32 %71, 0
  br i1 %72, label %73, label %114

73:                                               ; preds = %64
  %74 = load ptr, ptr %3, align 8, !tbaa !79
  %75 = load i32, ptr %10, align 4, !tbaa !8
  call void @Tim_ManSetCurrentTravIdBoxInputs(ptr noundef %74, i32 noundef %75)
  %76 = load ptr, ptr %3, align 8, !tbaa !79
  %77 = load i32, ptr %10, align 4, !tbaa !8
  %78 = call i32 @Tim_ManBoxOutputFirst(ptr noundef %76, i32 noundef %77)
  store i32 %78, ptr %11, align 4, !tbaa !8
  %79 = load ptr, ptr %3, align 8, !tbaa !79
  %80 = load i32, ptr %10, align 4, !tbaa !8
  %81 = call i32 @Tim_ManBoxOutputNum(ptr noundef %79, i32 noundef %80)
  store i32 %81, ptr %12, align 4, !tbaa !8
  store i32 0, ptr %9, align 4, !tbaa !8
  br label %82

82:                                               ; preds = %110, %73
  %83 = load i32, ptr %9, align 4, !tbaa !8
  %84 = load i32, ptr %12, align 4, !tbaa !8
  %85 = icmp slt i32 %83, %84
  br i1 %85, label %86, label %113

86:                                               ; preds = %82
  %87 = load ptr, ptr %6, align 8, !tbaa !18
  %88 = getelementptr inbounds nuw %struct.Nwk_Obj_t_, ptr %87, i32 0, i32 0
  %89 = load ptr, ptr %88, align 8, !tbaa !46
  %90 = load i32, ptr %11, align 4, !tbaa !8
  %91 = load i32, ptr %9, align 4, !tbaa !8
  %92 = add nsw i32 %90, %91
  %93 = call ptr @Nwk_ManCi(ptr noundef %89, i32 noundef %92)
  store ptr %93, ptr %6, align 8, !tbaa !18
  %94 = load ptr, ptr %6, align 8, !tbaa !18
  %95 = getelementptr inbounds nuw %struct.Nwk_Obj_t_, ptr %94, i32 0, i32 4
  %96 = load i32, ptr %95, align 8
  %97 = lshr i32 %96, 4
  %98 = and i32 %97, 1
  %99 = icmp ne i32 %98, 0
  br i1 %99, label %100, label %101

100:                                              ; preds = %86
  br label %110

101:                                              ; preds = %86
  %102 = load ptr, ptr %4, align 8, !tbaa !29
  %103 = load ptr, ptr %6, align 8, !tbaa !18
  %104 = load i32, ptr %8, align 4, !tbaa !8
  call void @Nwk_NodeUpdateAddToQueue(ptr noundef %102, ptr noundef %103, i32 noundef %104, i32 noundef 1)
  %105 = load ptr, ptr %6, align 8, !tbaa !18
  %106 = getelementptr inbounds nuw %struct.Nwk_Obj_t_, ptr %105, i32 0, i32 4
  %107 = load i32, ptr %106, align 8
  %108 = and i32 %107, -17
  %109 = or i32 %108, 16
  store i32 %109, ptr %106, align 8
  br label %110

110:                                              ; preds = %101, %100
  %111 = load i32, ptr %9, align 4, !tbaa !8
  %112 = add nsw i32 %111, 1
  store i32 %112, ptr %9, align 4, !tbaa !8
  br label %82, !llvm.loop !91

113:                                              ; preds = %82
  br label %114

114:                                              ; preds = %113, %64
  br label %115

115:                                              ; preds = %114, %61
  br label %159

116:                                              ; preds = %55
  store i32 0, ptr %9, align 4, !tbaa !8
  br label %117

117:                                              ; preds = %155, %116
  %118 = load i32, ptr %9, align 4, !tbaa !8
  %119 = load ptr, ptr %5, align 8, !tbaa !18
  %120 = getelementptr inbounds nuw %struct.Nwk_Obj_t_, ptr %119, i32 0, i32 12
  %121 = load i32, ptr %120, align 8, !tbaa !55
  %122 = icmp slt i32 %118, %121
  br i1 %122, label %123, label %136

123:                                              ; preds = %117
  %124 = load ptr, ptr %5, align 8, !tbaa !18
  %125 = getelementptr inbounds nuw %struct.Nwk_Obj_t_, ptr %124, i32 0, i32 14
  %126 = load ptr, ptr %125, align 8, !tbaa !39
  %127 = load ptr, ptr %5, align 8, !tbaa !18
  %128 = getelementptr inbounds nuw %struct.Nwk_Obj_t_, ptr %127, i32 0, i32 11
  %129 = load i32, ptr %128, align 4, !tbaa !38
  %130 = load i32, ptr %9, align 4, !tbaa !8
  %131 = add nsw i32 %129, %130
  %132 = sext i32 %131 to i64
  %133 = getelementptr inbounds ptr, ptr %126, i64 %132
  %134 = load ptr, ptr %133, align 8, !tbaa !18
  store ptr %134, ptr %6, align 8, !tbaa !18
  %135 = icmp ne ptr %134, null
  br label %136

136:                                              ; preds = %123, %117
  %137 = phi i1 [ false, %117 ], [ %135, %123 ]
  br i1 %137, label %138, label %158

138:                                              ; preds = %136
  %139 = load ptr, ptr %6, align 8, !tbaa !18
  %140 = getelementptr inbounds nuw %struct.Nwk_Obj_t_, ptr %139, i32 0, i32 4
  %141 = load i32, ptr %140, align 8
  %142 = lshr i32 %141, 4
  %143 = and i32 %142, 1
  %144 = icmp ne i32 %143, 0
  br i1 %144, label %145, label %146

145:                                              ; preds = %138
  br label %155

146:                                              ; preds = %138
  %147 = load ptr, ptr %4, align 8, !tbaa !29
  %148 = load ptr, ptr %6, align 8, !tbaa !18
  %149 = load i32, ptr %8, align 4, !tbaa !8
  call void @Nwk_NodeUpdateAddToQueue(ptr noundef %147, ptr noundef %148, i32 noundef %149, i32 noundef 1)
  %150 = load ptr, ptr %6, align 8, !tbaa !18
  %151 = getelementptr inbounds nuw %struct.Nwk_Obj_t_, ptr %150, i32 0, i32 4
  %152 = load i32, ptr %151, align 8
  %153 = and i32 %152, -17
  %154 = or i32 %153, 16
  store i32 %154, ptr %151, align 8
  br label %155

155:                                              ; preds = %146, %145
  %156 = load i32, ptr %9, align 4, !tbaa !8
  %157 = add nsw i32 %156, 1
  store i32 %157, ptr %9, align 4, !tbaa !8
  br label %117, !llvm.loop !92

158:                                              ; preds = %136
  br label %159

159:                                              ; preds = %158, %115
  br label %160

160:                                              ; preds = %159, %54
  %161 = load i32, ptr %8, align 4, !tbaa !8
  %162 = add nsw i32 %161, 1
  store i32 %162, ptr %8, align 4, !tbaa !8
  br label %31, !llvm.loop !93

163:                                              ; preds = %40
  call void @llvm.lifetime.end.p0(i64 4, ptr %12) #8
  call void @llvm.lifetime.end.p0(i64 4, ptr %11) #8
  call void @llvm.lifetime.end.p0(i64 4, ptr %10) #8
  call void @llvm.lifetime.end.p0(i64 4, ptr %9) #8
  call void @llvm.lifetime.end.p0(i64 4, ptr %8) #8
  call void @llvm.lifetime.end.p0(i64 4, ptr %7) #8
  call void @llvm.lifetime.end.p0(i64 8, ptr %6) #8
  call void @llvm.lifetime.end.p0(i64 8, ptr %5) #8
  call void @llvm.lifetime.end.p0(i64 8, ptr %4) #8
  call void @llvm.lifetime.end.p0(i64 8, ptr %3) #8
  ret void
}