; Function Attrs: nounwind uwtable
define void @Nwk_ManUpdateLevel(ptr noundef %0) local_unnamed_addr #4 {
  %2 = load ptr, ptr %0, align 8, !tbaa !39
  %3 = getelementptr inbounds nuw i8, ptr %2, i64 72
  %4 = load ptr, ptr %3, align 8, !tbaa !57
  %5 = getelementptr inbounds nuw i8, ptr %2, i64 96
  %6 = load ptr, ptr %5, align 8, !tbaa !70
  %7 = getelementptr inbounds nuw i8, ptr %6, i64 4
  store i32 0, ptr %7, align 4, !tbaa !15
  %8 = load i32, ptr %6, align 8, !tbaa !67
  %9 = icmp eq i32 %8, 0
  %10 = getelementptr inbounds nuw i8, ptr %6, i64 8
  %11 = load ptr, ptr %10, align 8, !tbaa !17
  br i1 %9, label %12, label %Vec_PtrPush.exit

12:                                               ; preds = %1
  %.not9.i.i = icmp eq ptr %11, null
  br i1 %.not9.i.i, label %15, label %13

13:                                               ; preds = %12
  %14 = tail call dereferenceable_or_null(128) ptr @realloc(ptr noundef nonnull %11, i64 noundef 128) #14
  %.pre.pre = load i32, ptr %7, align 4, !tbaa !15
  br label %Vec_PtrGrow.exit.i

15:                                               ; preds = %12
  %16 = tail call noalias dereferenceable_or_null(128) ptr @malloc(i64 noundef 128) #13
  br label %Vec_PtrGrow.exit.i

Vec_PtrGrow.exit.i:                               ; preds = %15, %13
  %.pre = phi i32 [ %.pre.pre, %13 ], [ 0, %15 ]
  %17 = phi ptr [ %14, %13 ], [ %16, %15 ]
  store ptr %17, ptr %10, align 8, !tbaa !17
  store i32 16, ptr %6, align 8, !tbaa !67
  br label %Vec_PtrPush.exit

Vec_PtrPush.exit:                                 ; preds = %1, %Vec_PtrGrow.exit.i
  %18 = phi i32 [ %.pre, %Vec_PtrGrow.exit.i ], [ 0, %1 ]
  %19 = phi ptr [ %17, %Vec_PtrGrow.exit.i ], [ %11, %1 ]
  %20 = add nsw i32 %18, 1
  store i32 %20, ptr %7, align 4, !tbaa !15
  %21 = sext i32 %18 to i64
  %22 = getelementptr inbounds ptr, ptr %19, i64 %21
  store ptr %0, ptr %22, align 8, !tbaa !18
  %23 = getelementptr inbounds nuw i8, ptr %0, i64 32
  %24 = load i32, ptr %23, align 8
  %25 = or i32 %24, 16
  store i32 %25, ptr %23, align 8
  %.val75 = load i32, ptr %7, align 4, !tbaa !15
  %26 = icmp sgt i32 %.val75, 0
  br i1 %26, label %.lr.ph78, label %.critedge

.lr.ph78:                                         ; preds = %Vec_PtrPush.exit
  %27 = getelementptr i8, ptr %6, i64 8
  %.not61 = icmp eq ptr %4, null
  br label %28

28:                                               ; preds = %.lr.ph78, %.critedge2
  %indvars.iv81 = phi i64 [ 0, %.lr.ph78 ], [ %indvars.iv.next82, %.critedge2 ]
  %.077 = phi ptr [ null, %.lr.ph78 ], [ %.1, %.critedge2 ]
  %.val63 = load ptr, ptr %27, align 8, !tbaa !17
  %29 = getelementptr inbounds nuw ptr, ptr %.val63, i64 %indvars.iv81
  %30 = load ptr, ptr %29, align 8, !tbaa !18
  %31 = getelementptr inbounds nuw i8, ptr %30, i64 32
  %32 = load i32, ptr %31, align 8
  %33 = and i32 %32, -17
  store i32 %33, ptr %31, align 8
  %34 = tail call i32 @Nwk_ObjLevelNew(ptr noundef %30)
  %35 = getelementptr i8, ptr %30, i64 44
  %.val65 = load i32, ptr %35, align 4, !tbaa !68
  %36 = icmp eq i32 %34, %.val65
  br i1 %36, label %.critedge2, label %37

37:                                               ; preds = %28
  store i32 %34, ptr %35, align 4, !tbaa !68
  %.val64 = load i32, ptr %31, align 8
  %38 = and i32 %.val64, 7
  %.not = icmp eq i32 %38, 2
  br i1 %.not, label %45, label %.preheader

.preheader:                                       ; preds = %37
  %39 = getelementptr inbounds nuw i8, ptr %30, i64 72
  %40 = getelementptr inbounds nuw i8, ptr %30, i64 64
  %41 = load i32, ptr %40, align 8, !tbaa !47
  %42 = icmp sgt i32 %41, 0
  br i1 %42, label %.lr.ph, label %.critedge2

.lr.ph:                                           ; preds = %.preheader
  %43 = getelementptr inbounds nuw i8, ptr %30, i64 60
  %44 = trunc nuw nsw i64 %indvars.iv81 to i32
  br label %69

45:                                               ; preds = %37
  br i1 %.not61, label %.critedge2, label %46

46:                                               ; preds = %45
  %47 = lshr i32 %.val64, 7
  %48 = tail call i32 @Tim_ManBoxForCo(ptr noundef nonnull %4, i32 noundef %47) #12
  %49 = icmp sgt i32 %48, -1
  br i1 %49, label %50, label %.critedge2

50:                                               ; preds = %46
  tail call void @Tim_ManSetCurrentTravIdBoxInputs(ptr noundef nonnull %4, i32 noundef %48) #12
  %51 = tail call i32 @Tim_ManBoxOutputFirst(ptr noundef nonnull %4, i32 noundef %48) #12
  %52 = tail call i32 @Tim_ManBoxOutputNum(ptr noundef nonnull %4, i32 noundef %48) #12
  %53 = icmp sgt i32 %52, 0
  br i1 %53, label %.lr.ph73.preheader, label %.critedge2

.lr.ph73.preheader:                               ; preds = %50
  %54 = sext i32 %51 to i64
  %wide.trip.count = zext nneg i32 %52 to i64
  %55 = trunc nuw nsw i64 %indvars.iv81 to i32
  br label %.lr.ph73

.lr.ph73:                                         ; preds = %.lr.ph73.preheader, %68
  %indvars.iv = phi i64 [ 0, %.lr.ph73.preheader ], [ %indvars.iv.next, %68 ]
  %.272 = phi ptr [ %.077, %.lr.ph73.preheader ], [ %61, %68 ]
  %56 = load ptr, ptr %.272, align 8, !tbaa !39
  %57 = getelementptr i8, ptr %56, i64 16
  %.val66 = load ptr, ptr %57, align 8, !tbaa !71
  %58 = getelementptr i8, ptr %.val66, i64 8
  %.val66.val = load ptr, ptr %58, align 8, !tbaa !17
  %59 = getelementptr ptr, ptr %.val66.val, i64 %indvars.iv
  %60 = getelementptr ptr, ptr %59, i64 %54
  %61 = load ptr, ptr %60, align 8, !tbaa !18
  %62 = getelementptr inbounds nuw i8, ptr %61, i64 32
  %63 = load i32, ptr %62, align 8
  %64 = and i32 %63, 16
  %.not62 = icmp eq i32 %64, 0
  br i1 %.not62, label %65, label %68

65:                                               ; preds = %.lr.ph73
  tail call void @Nwk_NodeUpdateAddToQueue(ptr noundef nonnull %6, ptr noundef nonnull %61, i32 noundef %55, i32 noundef 1)
  %66 = load i32, ptr %62, align 8
  %67 = or i32 %66, 16
  store i32 %67, ptr %62, align 8
  br label %68

68:                                               ; preds = %.lr.ph73, %65
  %indvars.iv.next = add nuw nsw i64 %indvars.iv, 1
  %exitcond.not = icmp eq i64 %indvars.iv.next, %wide.trip.count
  br i1 %exitcond.not, label %.critedge2, label %.lr.ph73, !llvm.loop !81

69:                                               ; preds = %.lr.ph, %84
  %70 = phi i32 [ %41, %.lr.ph ], [ %85, %84 ]
  %.15368 = phi i32 [ 0, %.lr.ph ], [ %86, %84 ]
  %71 = load ptr, ptr %39, align 8, !tbaa !30
  %72 = load i32, ptr %43, align 4, !tbaa !29
  %73 = add nsw i32 %72, %.15368
  %74 = sext i32 %73 to i64
  %75 = getelementptr inbounds ptr, ptr %71, i64 %74
  %76 = load ptr, ptr %75, align 8, !tbaa !31
  %.not59 = icmp eq ptr %76, null
  br i1 %.not59, label %.critedge2, label %77

77:                                               ; preds = %69
  %78 = getelementptr inbounds nuw i8, ptr %76, i64 32
  %79 = load i32, ptr %78, align 8
  %80 = and i32 %79, 16
  %.not60 = icmp eq i32 %80, 0
  br i1 %.not60, label %81, label %84

81:                                               ; preds = %77
  tail call void @Nwk_NodeUpdateAddToQueue(ptr noundef nonnull %6, ptr noundef nonnull %76, i32 noundef %44, i32 noundef 1)
  %82 = load i32, ptr %78, align 8
  %83 = or i32 %82, 16
  store i32 %83, ptr %78, align 8
  %.pre84 = load i32, ptr %40, align 8, !tbaa !47
  br label %84

84:                                               ; preds = %77, %81
  %85 = phi i32 [ %70, %77 ], [ %.pre84, %81 ]
  %86 = add nuw nsw i32 %.15368, 1
  %87 = icmp slt i32 %86, %85
  br i1 %87, label %69, label %.critedge2, !llvm.loop !82

.critedge2:                                       ; preds = %69, %84, %68, %.preheader, %50, %46, %45, %28
  %.1 = phi ptr [ %.077, %28 ], [ %.077, %46 ], [ %.077, %45 ], [ %.077, %50 ], [ %.077, %.preheader ], [ %61, %68 ], [ null, %69 ], [ %76, %84 ]
  %indvars.iv.next82 = add nuw nsw i64 %indvars.iv81, 1
  %.val = load i32, ptr %7, align 4, !tbaa !15
  %88 = sext i32 %.val to i64
  %89 = icmp slt i64 %indvars.iv.next82, %88
  br i1 %89, label %28, label %.critedge, !llvm.loop !83

.critedge:                                        ; preds = %.critedge2, %Vec_PtrPush.exit
  ret void
}